libyaml-cpp.so.0.6 libyaml-cpp0.6 #MINVER#
#yaml-cpp does not deliberately define any weak symbols;
# they are all inline functions that the compiler has chosen
# to also emit a symbol for.
(optional)#include "weak-symbols"
# Actual symbols of the yaml-cpp ABI
 _ZN4YAML11BadPushbackD0Ev@Base 0.6.2
 _ZN4YAML11BadPushbackD1Ev@Base 0.6.2
 _ZN4YAML11BadPushbackD2Ev@Base 0.6.2
 _ZN4YAML11InvalidNodeD0Ev@Base 0.6.2
 _ZN4YAML11InvalidNodeD1Ev@Base 0.6.2
 _ZN4YAML11InvalidNodeD2Ev@Base 0.6.2
 _ZN4YAML11KeyNotFoundD0Ev@Base 0.6.2
 _ZN4YAML11KeyNotFoundD1Ev@Base 0.6.2
 _ZN4YAML11KeyNotFoundD2Ev@Base 0.6.2
 _ZN4YAML12BadSubscriptD0Ev@Base 0.6.2
 _ZN4YAML12BadSubscriptD1Ev@Base 0.6.2
 _ZN4YAML12BadSubscriptD2Ev@Base 0.6.2
 _ZN4YAML12DecodeBase64ERKNSt7__cxx1112basic_stringIcSt11char_traitsIcESaIcEEE@Base 0.6.2
 (arch-bits=64)_ZN4YAML12EncodeBase64B5cxx11EPKhm@Base 0.6.2
 (arch-bits=32)_ZN4YAML12EncodeBase64B5cxx11EPKhj@Base 0.6.2
 _ZN4YAML12IsNullStringERKNSt7__cxx1112basic_stringIcSt11char_traitsIcESaIcEEE@Base 0.6.2
 _ZN4YAML13BadConversionD0Ev@Base 0.6.2
 _ZN4YAML13BadConversionD1Ev@Base 0.6.2
 _ZN4YAML13BadConversionD2Ev@Base 0.6.2
 _ZN4YAML13InvalidScalarD0Ev@Base 0.6.2
 _ZN4YAML13InvalidScalarD1Ev@Base 0.6.2
 _ZN4YAML13InvalidScalarD2Ev@Base 0.6.2
 _ZN4YAML14BadDereferenceD0Ev@Base 0.6.2
 _ZN4YAML14BadDereferenceD1Ev@Base 0.6.2
 _ZN4YAML14BadDereferenceD2Ev@Base 0.6.2
 _ZN4YAML15LoadAllFromFileERKNSt7__cxx1112basic_stringIcSt11char_traitsIcESaIcEEE@Base 0.6.2
 _ZN4YAML15ostream_wrapper10update_posEc@Base 0.6.2
 (arch-bits=64)_ZN4YAML15ostream_wrapper5writeEPKcm@Base 0.6.2
 (arch-bits=32)_ZN4YAML15ostream_wrapper5writeEPKcj@Base 0.6.2
 _ZN4YAML15ostream_wrapper5writeERKNSt7__cxx1112basic_stringIcSt11char_traitsIcESaIcEEE@Base 0.6.2
 _ZN4YAML15ostream_wrapperC1ERSo@Base 0.6.2
 _ZN4YAML15ostream_wrapperC1Ev@Base 0.6.2
 _ZN4YAML15ostream_wrapperC2ERSo@Base 0.6.2
 _ZN4YAML15ostream_wrapperC2Ev@Base 0.6.2
 _ZN4YAML15ostream_wrapperD1Ev@Base 0.6.2
 _ZN4YAML15ostream_wrapperD2Ev@Base 0.6.2
 _ZN4YAML15ParserExceptionD0Ev@Base 0.6.2
 _ZN4YAML15ParserExceptionD1Ev@Base 0.6.2
 _ZN4YAML15ParserExceptionD2Ev@Base 0.6.2
 _ZN4YAML16EmitterExceptionD0Ev@Base 0.6.2
 _ZN4YAML16EmitterExceptionD1Ev@Base 0.6.2
 _ZN4YAML16EmitterExceptionD2Ev@Base 0.6.2
 _ZN4YAML23RepresentationExceptionD0Ev@Base 0.6.2
 _ZN4YAML23RepresentationExceptionD1Ev@Base 0.6.2
 _ZN4YAML23RepresentationExceptionD2Ev@Base 0.6.2
 _ZN4YAML4DumpB5cxx11ERKNS_4NodeE@Base 0.6.2
 _ZN4YAML4LoadEPKc@Base 0.6.2
 _ZN4YAML4LoadERKNSt7__cxx1112basic_stringIcSt11char_traitsIcESaIcEEE@Base 0.6.2
 _ZN4YAML4LoadERSi@Base 0.6.2
 _ZN4YAML4NullE@Base 0.6.2
 _ZN4YAML5CloneERKNS_4NodeE@Base 0.6.2
 _ZN4YAML5RegExC1Ec@Base 0.6.2
 _ZN4YAML5RegExC1Ecc@Base 0.6.2
 _ZN4YAML5RegExC1ENS_8REGEX_OPE@Base 0.6.2
 _ZN4YAML5RegExC1ERKNSt7__cxx1112basic_stringIcSt11char_traitsIcESaIcEEENS_8REGEX_OPE@Base 0.6.2
 _ZN4YAML5RegExC1Ev@Base 0.6.2
 _ZN4YAML5RegExC2Ec@Base 0.6.2
 _ZN4YAML5RegExC2Ecc@Base 0.6.2
 _ZN4YAML5RegExC2ENS_8REGEX_OPE@Base 0.6.2
 _ZN4YAML5RegExC2ERKNSt7__cxx1112basic_stringIcSt11char_traitsIcESaIcEEENS_8REGEX_OPE@Base 0.6.2
 _ZN4YAML5RegExC2Ev@Base 0.6.2
 _ZN4YAML6detail13memory_holder5mergeERS1_@Base 0.6.2
 _ZN4YAML6detail6memory11create_nodeEv@Base 0.6.2
 _ZN4YAML6detail6memory5mergeERKS1_@Base 0.6.2
 _ZN4YAML6detail9node_data10set_scalarERKNSt7__cxx1112basic_stringIcSt11char_traitsIcESaIcEEE@Base 0.6.2
 _ZN4YAML6detail9node_data12empty_scalarB5cxx11E@Base 0.6.2
 _ZN4YAML6detail9node_data12mark_definedEv@Base 0.6.2
 _ZN4YAML6detail9node_data14convert_to_mapESt10shared_ptrINS0_13memory_holderEE@Base 0.6.2
 _ZN4YAML6detail9node_data14reset_sequenceEv@Base 0.6.2
 _ZN4YAML6detail9node_data15insert_map_pairERNS0_4nodeES3_@Base 0.6.2
 _ZN4YAML6detail9node_data23convert_sequence_to_mapESt10shared_ptrINS0_13memory_holderEE@Base 0.6.2
 _ZN4YAML6detail9node_data3endEv@Base 0.6.2
 _ZN4YAML6detail9node_data3getERNS0_4nodeESt10shared_ptrINS0_13memory_holderEE@Base 0.6.2
 _ZN4YAML6detail9node_data5beginEv@Base 0.6.2
 _ZN4YAML6detail9node_data6insertERNS0_4nodeES3_St10shared_ptrINS0_13memory_holderEE@Base 0.6.2
 _ZN4YAML6detail9node_data6removeERNS0_4nodeESt10shared_ptrINS0_13memory_holderEE@Base 0.6.2
 _ZN4YAML6detail9node_data7set_tagERKNSt7__cxx1112basic_stringIcSt11char_traitsIcESaIcEEE@Base 0.6.2
 _ZN4YAML6detail9node_data8set_markERKNS_4MarkE@Base 0.6.2
 _ZN4YAML6detail9node_data8set_nullEv@Base 0.6.2
 _ZN4YAML6detail9node_data8set_typeENS_8NodeType5valueE@Base 0.6.2
 _ZN4YAML6detail9node_data9push_backERNS0_4nodeESt10shared_ptrINS0_13memory_holderEE@Base 0.6.2
 _ZN4YAML6detail9node_data9reset_mapEv@Base 0.6.2
 _ZN4YAML6detail9node_data9set_styleENS_12EmitterStyle5valueE@Base 0.6.2
 _ZN4YAML6detail9node_dataC1Ev@Base 0.6.2
 _ZN4YAML6detail9node_dataC2Ev@Base 0.6.2
 _ZN4YAML6Parser11PrintTokensERSo@Base 0.6.2
 _ZN4YAML6Parser15HandleDirectiveERKNS_5TokenE@Base 0.6.2
 _ZN4YAML6Parser15ParseDirectivesEv@Base 0.6.2
 _ZN4YAML6Parser18HandleNextDocumentERNS_12EventHandlerE@Base 0.6.2
 _ZN4YAML6Parser18HandleTagDirectiveERKNS_5TokenE@Base 0.6.2
 _ZN4YAML6Parser19HandleYamlDirectiveERKNS_5TokenE@Base 0.6.2
 _ZN4YAML6Parser4LoadERSi@Base 0.6.2
 _ZN4YAML6ParserC1ERSi@Base 0.6.2
 _ZN4YAML6ParserC1Ev@Base 0.6.2
 _ZN4YAML6ParserC2ERSi@Base 0.6.2
 _ZN4YAML6ParserC2Ev@Base 0.6.2
 _ZN4YAML6ParserD1Ev@Base 0.6.2
 _ZN4YAML6ParserD2Ev@Base 0.6.2
 _ZN4YAML7BadFileD0Ev@Base 0.6.2
 _ZN4YAML7BadFileD1Ev@Base 0.6.2
 _ZN4YAML7BadFileD2Ev@Base 0.6.2
 _ZN4YAML7convertIbE6decodeERKNS_4NodeERb@Base 0.6.2
 _ZN4YAML7Emitter10EmitEndDocEv@Base 0.6.2
 _ZN4YAML7Emitter10EmitEndMapEv@Base 0.6.2
 _ZN4YAML7Emitter10EmitEndSeqEv@Base 0.6.2
 _ZN4YAML7Emitter10SetIntBaseENS_13EMITTER_MANIPE@Base 0.6.2
 _ZN4YAML7Emitter11EmitKindTagEv@Base 0.6.2
 _ZN4YAML7Emitter11EmitNewlineEv@Base 0.6.2
 _ZN4YAML7Emitter11PrepareNodeENS_15EmitterNodeType5valueE@Base 0.6.2
 _ZN4YAML7Emitter12EmitBeginDocEv@Base 0.6.2
 _ZN4YAML7Emitter12EmitBeginMapEv@Base 0.6.2
 _ZN4YAML7Emitter12EmitBeginSeqEv@Base 0.6.2
 _ZN4YAML7Emitter12SetMapFormatENS_13EMITTER_MANIPE@Base 0.6.2
 _ZN4YAML7Emitter12SetSeqFormatENS_13EMITTER_MANIPE@Base 0.6.2
 _ZN4YAML7Emitter13SetBoolFormatENS_13EMITTER_MANIPE@Base 0.6.2
 _ZN4YAML7Emitter13SetLocalValueENS_13EMITTER_MANIPE@Base 0.6.2
 _ZN4YAML7Emitter13StartedScalarEv@Base 0.6.2
 _ZN4YAML7Emitter14PrepareTopNodeENS_15EmitterNodeType5valueE@Base 0.6.2
 _ZN4YAML7Emitter14SetLocalIndentERKNS_7_IndentE@Base 0.6.2
 _ZN4YAML7Emitter15SetStringFormatENS_13EMITTER_MANIPE@Base 0.6.2
 (arch-bits=64)_ZN4YAML7Emitter15SpaceOrIndentToEbm@Base 0.6.2
 (arch-bits=32)_ZN4YAML7Emitter15SpaceOrIndentToEbj@Base 0.6.2
 _ZN4YAML7Emitter16SetOutputCharsetENS_13EMITTER_MANIPE@Base 0.6.2
 (arch-bits=64)_ZN4YAML7Emitter17SetFloatPrecisionEm@Base 0.6.2
 (arch-bits=32)_ZN4YAML7Emitter17SetFloatPrecisionEj@Base 0.6.2
 _ZN4YAML7Emitter17SetLocalPrecisionERKNS_10_PrecisionE@Base 0.6.2
 _ZN4YAML7Emitter18FlowMapPrepareNodeENS_15EmitterNodeType5valueE@Base 0.6.2
 _ZN4YAML7Emitter18FlowSeqPrepareNodeENS_15EmitterNodeType5valueE@Base 0.6.2
 (arch-bits=64)_ZN4YAML7Emitter18SetDoublePrecisionEm@Base 0.6.2
 (arch-bits=32)_ZN4YAML7Emitter18SetDoublePrecisionEj@Base 0.6.2
 _ZN4YAML7Emitter19BlockMapPrepareNodeENS_15EmitterNodeType5valueE@Base 0.6.2
 _ZN4YAML7Emitter19BlockSeqPrepareNodeENS_15EmitterNodeType5valueE@Base 0.6.2
 (arch-bits=64)_ZN4YAML7Emitter19SetPreCommentIndentEm@Base 0.6.2
 (arch-bits=32)_ZN4YAML7Emitter19SetPreCommentIndentEj@Base 0.6.2
 (arch-bits=64)_ZN4YAML7Emitter20SetPostCommentIndentEm@Base 0.6.2
 (arch-bits=32)_ZN4YAML7Emitter20SetPostCommentIndentEj@Base 0.6.2
 _ZN4YAML7Emitter21FlowMapPrepareLongKeyENS_15EmitterNodeType5valueE@Base 0.6.2
 _ZN4YAML7Emitter22BlockMapPrepareLongKeyENS_15EmitterNodeType5valueE@Base 0.6.2
 _ZN4YAML7Emitter23FlowMapPrepareSimpleKeyENS_15EmitterNodeType5valueE@Base 0.6.2
 _ZN4YAML7Emitter24BlockMapPrepareSimpleKeyENS_15EmitterNodeType5valueE@Base 0.6.2
 _ZN4YAML7Emitter26FlowMapPrepareLongKeyValueENS_15EmitterNodeType5valueE@Base 0.6.2
 _ZN4YAML7Emitter27BlockMapPrepareLongKeyValueENS_15EmitterNodeType5valueE@Base 0.6.2
 _ZN4YAML7Emitter28FlowMapPrepareSimpleKeyValueENS_15EmitterNodeType5valueE@Base 0.6.2
 _ZN4YAML7Emitter29BlockMapPrepareSimpleKeyValueENS_15EmitterNodeType5valueE@Base 0.6.2
 _ZN4YAML7Emitter5WriteEb@Base 0.6.2
 _ZN4YAML7Emitter5WriteEc@Base 0.6.2
 _ZN4YAML7Emitter5WriteERKNS_4_TagE@Base 0.6.2
 _ZN4YAML7Emitter5WriteERKNS_5_NullE@Base 0.6.2
 _ZN4YAML7Emitter5WriteERKNS_6_AliasE@Base 0.6.2
 _ZN4YAML7Emitter5WriteERKNS_6BinaryE@Base 0.6.2
 _ZN4YAML7Emitter5WriteERKNS_7_AnchorE@Base 0.6.2
 _ZN4YAML7Emitter5WriteERKNS_8_CommentE@Base 0.6.2
 _ZN4YAML7Emitter5WriteERKNSt7__cxx1112basic_stringIcSt11char_traitsIcESaIcEEE@Base 0.6.2
 (arch-bits=64)_ZN4YAML7Emitter9SetIndentEm@Base 0.6.2
 (arch-bits=32)_ZN4YAML7Emitter9SetIndentEj@Base 0.6.2
 _ZN4YAML7EmitterC1ERSo@Base 0.6.2
 _ZN4YAML7EmitterC1Ev@Base 0.6.2
 _ZN4YAML7EmitterC2ERSo@Base 0.6.2
 _ZN4YAML7EmitterC2Ev@Base 0.6.2
 _ZN4YAML7EmitterD1Ev@Base 0.6.2
 _ZN4YAML7EmitterD2Ev@Base 0.6.2
 _ZN4YAML7LoadAllEPKc@Base 0.6.2
 _ZN4YAML7LoadAllERKNSt7__cxx1112basic_stringIcSt11char_traitsIcESaIcEEE@Base 0.6.2
 _ZN4YAML7LoadAllERSi@Base 0.6.2
 _ZN4YAML8LoadFileERKNSt7__cxx1112basic_stringIcSt11char_traitsIcESaIcEEE@Base 0.6.2
 _ZN4YAML9BadInsertD0Ev@Base 0.6.2
 _ZN4YAML9BadInsertD1Ev@Base 0.6.2
 _ZN4YAML9BadInsertD2Ev@Base 0.6.2
 _ZN4YAML9ExceptionD0Ev@Base 0.6.2
 _ZN4YAML9ExceptionD1Ev@Base 0.6.2
 _ZN4YAML9ExceptionD2Ev@Base 0.6.2
 _ZN4YAMLaaERKNS_5RegExES2_@Base 0.6.2
 _ZN4YAMLlsERNS_7EmitterERKNS_4NodeE@Base 0.6.2
 _ZN4YAMLlsERSoRKNS_4NodeE@Base 0.6.2
 _ZN4YAMLntERKNS_5RegExE@Base 0.6.2
 _ZN4YAMLooERKNS_5RegExES2_@Base 0.6.2
 _ZN4YAMLplERKNS_5RegExES2_@Base 0.6.2
 _ZNK4YAML6detail9node_data16compute_map_sizeEv@Base 0.6.2
 _ZNK4YAML6detail9node_data16compute_seq_sizeEv@Base 0.6.2
 _ZNK4YAML6detail9node_data3endEv@Base 0.6.2
 _ZNK4YAML6detail9node_data3getERNS0_4nodeESt10shared_ptrINS0_13memory_holderEE@Base 0.6.2
 _ZNK4YAML6detail9node_data4sizeEv@Base 0.6.2
 _ZNK4YAML6detail9node_data5beginEv@Base 0.6.2
 _ZNK4YAML6ParsercvbEv@Base 0.6.2
 _ZNK4YAML7Emitter12GetLastErrorB5cxx11Ev@Base 0.6.2
 _ZNK4YAML7Emitter14CanEmitNewlineEv@Base 0.6.2
 _ZNK4YAML7Emitter17GetFloatPrecisionEv@Base 0.6.2
 _ZNK4YAML7Emitter18GetDoublePrecisionEv@Base 0.6.2
 _ZNK4YAML7Emitter19ComputeFullBoolNameEb@Base 0.6.2
 _ZNK4YAML7Emitter21PrepareIntegralStreamERNSt7__cxx1118basic_stringstreamIcSt11char_traitsIcESaIcEEE@Base 0.6.2
 _ZNK4YAML7Emitter4goodEv@Base 0.6.2
 _ZNK4YAML7Emitter4sizeEv@Base 0.6.2
 _ZNK4YAML7Emitter5c_strEv@Base 0.6.2
 _ZTIN4YAML11BadPushbackE@Base 0.6.2
 _ZTIN4YAML11InvalidNodeE@Base 0.6.2
 _ZTIN4YAML11KeyNotFoundE@Base 0.6.2
 _ZTIN4YAML12BadSubscriptE@Base 0.6.2
 _ZTIN4YAML13BadConversionE@Base 0.6.2
 _ZTIN4YAML13InvalidScalarE@Base 0.6.2
 _ZTIN4YAML14BadDereferenceE@Base 0.6.2
 _ZTIN4YAML15ParserExceptionE@Base 0.6.2
 _ZTIN4YAML16EmitterExceptionE@Base 0.6.2
 _ZTIN4YAML23RepresentationExceptionE@Base 0.6.2
 _ZTIN4YAML7BadFileE@Base 0.6.2
 _ZTIN4YAML9BadInsertE@Base 0.6.2
 _ZTIN4YAML9ExceptionE@Base 0.6.2
 (arch= armel riscv64)_ZTIN9__gnu_cxx7__mutexE@Base 0.6.2
 (arch= armel riscv64)_ZTISt11_Mutex_baseILN9__gnu_cxx12_Lock_policyE1EE@Base 0.6.2
 (arch= !armel !riscv64)_ZTISt11_Mutex_baseILN9__gnu_cxx12_Lock_policyE2EE@Base 0.6.2
 (arch= armel riscv64)_ZTISt15_Sp_counted_ptrIPN4YAML6detail13memory_holderELN9__gnu_cxx12_Lock_policyE1EE@Base 0.6.2
 (arch= !armel !riscv64)_ZTISt15_Sp_counted_ptrIPN4YAML6detail13memory_holderELN9__gnu_cxx12_Lock_policyE2EE@Base 0.6.2
 (arch= armel riscv64)_ZTISt15_Sp_counted_ptrIPN4YAML6detail6memoryELN9__gnu_cxx12_Lock_policyE1EE@Base 0.6.2
 (arch= !armel !riscv64)_ZTISt15_Sp_counted_ptrIPN4YAML6detail6memoryELN9__gnu_cxx12_Lock_policyE2EE@Base 0.6.2
 (arch= armel riscv64)_ZTISt15_Sp_counted_ptrIPN4YAML6detail9node_dataELN9__gnu_cxx12_Lock_policyE1EE@Base 0.6.2
 (arch= !armel !riscv64)_ZTISt15_Sp_counted_ptrIPN4YAML6detail9node_dataELN9__gnu_cxx12_Lock_policyE2EE@Base 0.6.2
 (arch= armel riscv64)_ZTISt16_Sp_counted_baseILN9__gnu_cxx12_Lock_policyE1EE@Base 0.6.2
 (arch= !armel !riscv64)_ZTISt16_Sp_counted_baseILN9__gnu_cxx12_Lock_policyE2EE@Base 0.6.2
 _ZTSN4YAML11BadPushbackE@Base 0.6.2
 _ZTSN4YAML11InvalidNodeE@Base 0.6.2
 _ZTSN4YAML11KeyNotFoundE@Base 0.6.2
 _ZTSN4YAML12BadSubscriptE@Base 0.6.2
 _ZTSN4YAML13BadConversionE@Base 0.6.2
 _ZTSN4YAML13InvalidScalarE@Base 0.6.2
 _ZTSN4YAML14BadDereferenceE@Base 0.6.2
 _ZTSN4YAML15ParserExceptionE@Base 0.6.2
 _ZTSN4YAML16EmitterExceptionE@Base 0.6.2
 _ZTSN4YAML23RepresentationExceptionE@Base 0.6.2
 _ZTSN4YAML7BadFileE@Base 0.6.2
 _ZTSN4YAML9BadInsertE@Base 0.6.2
 _ZTSN4YAML9ExceptionE@Base 0.6.2
 (arch= armel riscv64)_ZTSN9__gnu_cxx7__mutexE@Base 0.6.2-2
 (arch= armel riscv64)_ZTSSt11_Mutex_baseILN9__gnu_cxx12_Lock_policyE1EE@Base 0.6.2-2
 (arch= !armel !riscv64)_ZTSSt11_Mutex_baseILN9__gnu_cxx12_Lock_policyE2EE@Base 0.6.2
 (arch= armel riscv64)_ZTSSt15_Sp_counted_ptrIPN4YAML6detail13memory_holderELN9__gnu_cxx12_Lock_policyE1EE@Base 0.6.2-2
 (arch= !armel !riscv64)_ZTSSt15_Sp_counted_ptrIPN4YAML6detail13memory_holderELN9__gnu_cxx12_Lock_policyE2EE@Base 0.6.2
 (arch= armel riscv64)_ZTSSt15_Sp_counted_ptrIPN4YAML6detail6memoryELN9__gnu_cxx12_Lock_policyE1EE@Base 0.6.2-2
 (arch= !armel !riscv64)_ZTSSt15_Sp_counted_ptrIPN4YAML6detail6memoryELN9__gnu_cxx12_Lock_policyE2EE@Base 0.6.2
 (arch= armel riscv64)_ZTSSt15_Sp_counted_ptrIPN4YAML6detail9node_dataELN9__gnu_cxx12_Lock_policyE1EE@Base 0.6.2-2
 (arch= !armel !riscv64)_ZTSSt15_Sp_counted_ptrIPN4YAML6detail9node_dataELN9__gnu_cxx12_Lock_policyE2EE@Base 0.6.2
 (arch= armel riscv64)_ZTSSt16_Sp_counted_baseILN9__gnu_cxx12_Lock_policyE1EE@Base 0.6.2-2
 (arch= !armel !riscv64)_ZTSSt16_Sp_counted_baseILN9__gnu_cxx12_Lock_policyE2EE@Base 0.6.2
 _ZTVN4YAML11BadPushbackE@Base 0.6.2
 _ZTVN4YAML11InvalidNodeE@Base 0.6.2
 _ZTVN4YAML11KeyNotFoundE@Base 0.6.2
 _ZTVN4YAML12BadSubscriptE@Base 0.6.2
 _ZTVN4YAML13BadConversionE@Base 0.6.2
 _ZTVN4YAML13InvalidScalarE@Base 0.6.2
 _ZTVN4YAML14BadDereferenceE@Base 0.6.2
 _ZTVN4YAML15ParserExceptionE@Base 0.6.2
 _ZTVN4YAML16EmitterExceptionE@Base 0.6.2
 _ZTVN4YAML23RepresentationExceptionE@Base 0.6.2
 _ZTVN4YAML7BadFileE@Base 0.6.2
 _ZTVN4YAML9BadInsertE@Base 0.6.2
 _ZTVN4YAML9ExceptionE@Base 0.6.2
 (arch= armel riscv64)_ZTVSt15_Sp_counted_ptrIPN4YAML6detail13memory_holderELN9__gnu_cxx12_Lock_policyE1EE@Base 0.6.2-2
 (arch= !armel !riscv64)_ZTVSt15_Sp_counted_ptrIPN4YAML6detail13memory_holderELN9__gnu_cxx12_Lock_policyE2EE@Base 0.6.2
 (arch= armel riscv64)_ZTVSt15_Sp_counted_ptrIPN4YAML6detail6memoryELN9__gnu_cxx12_Lock_policyE1EE@Base 0.6.2-2
 (arch= !armel !riscv64)_ZTVSt15_Sp_counted_ptrIPN4YAML6detail6memoryELN9__gnu_cxx12_Lock_policyE2EE@Base 0.6.2
 (arch= armel riscv64)_ZTVSt15_Sp_counted_ptrIPN4YAML6detail9node_dataELN9__gnu_cxx12_Lock_policyE1EE@Base 0.6.2-2
 (arch= !armel !riscv64)_ZTVSt15_Sp_counted_ptrIPN4YAML6detail9node_dataELN9__gnu_cxx12_Lock_policyE2EE@Base 0.6.2
